; Function Attrs: mustprogress uwtable
define internal fastcc noundef zeroext i1 @_ZN2cv5utils5trace7detailsL12isITTEnabledEv() unnamed_addr #3 personality ptr @__gxx_personality_v0 {
  %1 = load volatile i8, ptr @_ZZN2cv5utils5trace7detailsL12isITTEnabledEvE13isInitialized, align 1, !tbaa !19, !range !21, !noundef !22
  %2 = trunc nuw i8 %1 to i1
  br i1 %2, label %32, label %3

3:                                                ; preds = %0
  %4 = tail call noundef nonnull align 8 dereferenceable(40) ptr @_ZN2cv22getInitializationMutexEv()
  %5 = tail call noundef i32 @pthread_mutex_lock(ptr noundef nonnull align 8 dereferenceable(40) %4) #24
  %.not.i.i = icmp eq i32 %5, 0
  br i1 %.not.i.i, label %_ZNSt10lock_guardISt15recursive_mutexEC2ERS0_.exit, label %6

6:                                                ; preds = %3
  tail call void @_ZSt20__throw_system_errori(i32 noundef %5) #25
  unreachable

_ZNSt10lock_guardISt15recursive_mutexEC2ERS0_.exit: ; preds = %3
  %7 = load volatile i8, ptr @_ZZN2cv5utils5trace7detailsL12isITTEnabledEvE13isInitialized, align 1, !tbaa !19, !range !21, !noundef !22
  %8 = trunc nuw i8 %7 to i1
  br i1 %8, label %30, label %9

9:                                                ; preds = %_ZNSt10lock_guardISt15recursive_mutexEC2ERS0_.exit
  %10 = invoke noundef zeroext i1 @_ZN2cv5utils29getConfigurationParameterBoolEPKcb(ptr noundef nonnull @.str.24, i1 noundef zeroext true)
          to label %11 unwind label %25

11:                                               ; preds = %9
  br i1 %10, label %12, label %28

12:                                               ; preds = %11
  %13 = load ptr, ptr @__itt_api_version_ptr__3_0, align 8, !tbaa !10
  %.not = icmp eq ptr %13, null
  br i1 %.not, label %16, label %14

14:                                               ; preds = %12
  %15 = invoke ptr %13()
          to label %16 unwind label %25

16:                                               ; preds = %14, %12
  %17 = phi ptr [ null, %12 ], [ %15, %14 ]
  %18 = icmp ne ptr %17, null
  %19 = zext i1 %18 to i8
  store i8 %19, ptr @_ZZN2cv5utils5trace7detailsL12isITTEnabledEvE9isEnabled, align 1, !tbaa !19
  %20 = load ptr, ptr @__itt_domain_create_ptr__3_0, align 8, !tbaa !10
  %.not3 = icmp eq ptr %20, null
  br i1 %.not3, label %23, label %21

21:                                               ; preds = %16
  %22 = invoke ptr %20(ptr noundef nonnull @.str.17)
          to label %23 unwind label %25

23:                                               ; preds = %21, %16
  %24 = phi ptr [ null, %16 ], [ %22, %21 ]
  store ptr %24, ptr @_ZN2cv5utils5trace7detailsL6domainE, align 8, !tbaa !23
  br label %29

25:                                               ; preds = %21, %14, %9
  %26 = landingpad { ptr, i32 }
          cleanup
  %27 = tail call noundef i32 @pthread_mutex_unlock(ptr noundef nonnull align 8 dereferenceable(40) %4) #24
  resume { ptr, i32 } %26

28:                                               ; preds = %11
  store i8 0, ptr @_ZZN2cv5utils5trace7detailsL12isITTEnabledEvE9isEnabled, align 1, !tbaa !19
  br label %29

29:                                               ; preds = %28, %23
  store volatile i8 1, ptr @_ZZN2cv5utils5trace7detailsL12isITTEnabledEvE13isInitialized, align 1, !tbaa !19
  br label %30

30:                                               ; preds = %29, %_ZNSt10lock_guardISt15recursive_mutexEC2ERS0_.exit
  %31 = tail call noundef i32 @pthread_mutex_unlock(ptr noundef nonnull align 8 dereferenceable(40) %4) #24
  br label %32

32:                                               ; preds = %30, %0
  %33 = load i8, ptr @_ZZN2cv5utils5trace7detailsL12isITTEnabledEvE9isEnabled, align 1, !tbaa !19, !range !21, !noundef !22
  %34 = trunc nuw i8 %33 to i1
  ret i1 %34
}